; Function Attrs: nounwind uwtable
define internal ptr @create_pointer_inst(ptr noundef readonly captures(none) %0, ptr noundef %1) #0 {
  %3 = alloca ptr, align 8
  call void @llvm.lifetime.start.p0(i64 8, ptr nonnull %3) #10
  %4 = getelementptr i8, ptr %0, i64 32
  %.val9 = load ptr, ptr %4, align 8, !tbaa !56
  %5 = getelementptr inbounds nuw i8, ptr %.val9, i64 152
  %6 = load ptr, ptr %5, align 8, !tbaa !59
  %7 = getelementptr i8, ptr %1, i64 8
  %.val8 = load ptr, ptr %7, align 8, !tbaa !30
  %8 = call i32 @PyDict_GetItemRef(ptr noundef %6, ptr noundef %.val8, ptr noundef nonnull %3) #10
  %9 = icmp slt i32 %8, 0
  br i1 %9, label %Py_DECREF.exit, label %10

10:                                               ; preds = %2
  %11 = load ptr, ptr %3, align 8, !tbaa !3
  %12 = icmp eq ptr %11, null
  br i1 %12, label %13, label %16

13:                                               ; preds = %10
  %.val = load ptr, ptr %7, align 8, !tbaa !30
  %14 = call ptr @create_pointer_type(ptr noundef nonnull %0, ptr noundef %.val)
  store ptr %14, ptr %3, align 8, !tbaa !3
  %15 = icmp eq ptr %14, null
  br i1 %15, label %Py_DECREF.exit, label %16

16:                                               ; preds = %13, %10
  %17 = phi ptr [ %14, %13 ], [ %11, %10 ]
  %18 = call ptr @PyObject_CallOneArg(ptr noundef nonnull %17, ptr noundef nonnull %1) #10
  %19 = load ptr, ptr %3, align 8, !tbaa !3
  %20 = load i32, ptr %19, align 8, !tbaa !11
  %.not.i = icmp sgt i32 %20, -1
  br i1 %.not.i, label %21, label %Py_DECREF.exit

21:                                               ; preds = %16
  %22 = add nsw i32 %20, -1
  store i32 %22, ptr %19, align 8, !tbaa !11
  %23 = icmp eq i32 %22, 0
  br i1 %23, label %24, label %Py_DECREF.exit

24:                                               ; preds = %21
  call void @_Py_Dealloc(ptr noundef nonnull %19) #10
  br label %Py_DECREF.exit

Py_DECREF.exit:                                   ; preds = %24, %21, %16, %13, %2
  %.0 = phi ptr [ null, %2 ], [ null, %13 ], [ %18, %16 ], [ %18, %21 ], [ %18, %24 ]
  call void @llvm.lifetime.end.p0(i64 8, ptr nonnull %3) #10
  ret ptr %.0
}